; Function Attrs: nounwind uwtable
define internal range(i32 0, 2) i32 @test_fatalerr() #1 {
  %1 = alloca ptr, align 8
  %2 = alloca ptr, align 8
  %3 = alloca ptr, align 8
  %4 = alloca ptr, align 8
  %5 = alloca [80 x i8], align 16
  %6 = alloca [10 x i8], align 1
  call void @llvm.lifetime.start.p0(i64 8, ptr nonnull %1) #6
  store ptr null, ptr %1, align 8, !tbaa !9
  call void @llvm.lifetime.start.p0(i64 8, ptr nonnull %2) #6
  store ptr null, ptr %2, align 8, !tbaa !9
  call void @llvm.lifetime.start.p0(i64 8, ptr nonnull %3) #6
  store ptr null, ptr %3, align 8, !tbaa !11
  call void @llvm.lifetime.start.p0(i64 8, ptr nonnull %4) #6
  store ptr null, ptr %4, align 8, !tbaa !11
  call void @llvm.lifetime.start.p0(i64 80, ptr nonnull %5) #6
  call void @llvm.lifetime.start.p0(i64 10, ptr nonnull %6) #6
  call void @llvm.memcpy.p0.p0.i64(ptr noundef nonnull align 1 dereferenceable(10) %6, ptr noundef nonnull align 1 dereferenceable(10) @__const.test_fatalerr.dummyrec, i64 10, i1 false)
  %7 = tail call ptr @TLS_method() #6
  %8 = tail call ptr @TLS_method() #6
  %9 = load ptr, ptr @cert, align 8, !tbaa !4
  %10 = load ptr, ptr @privkey, align 8, !tbaa !4
  %11 = call i32 @create_ssl_ctx_pair(ptr noundef null, ptr noundef %7, ptr noundef %8, i32 noundef 769, i32 noundef 0, ptr noundef nonnull %1, ptr noundef nonnull %2, ptr noundef %9, ptr noundef %10) #6
  %12 = icmp ne i32 %11, 0
  %13 = zext i1 %12 to i32
  %14 = call i32 @test_true(ptr noundef nonnull @.str.14, i32 noundef 33, ptr noundef nonnull @.str.20, i32 noundef %13) #6
  %.not = icmp eq i32 %14, 0
  br i1 %.not, label %72, label %15

15:                                               ; preds = %0
  %16 = load ptr, ptr %1, align 8, !tbaa !9
  %17 = call i32 @SSL_CTX_set_cipher_list(ptr noundef %16, ptr noundef nonnull @.str.22) #6
  %18 = icmp ne i32 %17, 0
  %19 = zext i1 %18 to i32
  %20 = call i32 @test_true(ptr noundef nonnull @.str.14, i32 noundef 40, ptr noundef nonnull @.str.21, i32 noundef %19) #6
  %.not5 = icmp eq i32 %20, 0
  br i1 %.not5, label %72, label %21

21:                                               ; preds = %15
  %22 = load ptr, ptr %2, align 8, !tbaa !9
  %23 = call i32 @SSL_CTX_set_cipher_list(ptr noundef %22, ptr noundef nonnull @.str.24) #6
  %24 = icmp ne i32 %23, 0
  %25 = zext i1 %24 to i32
  %26 = call i32 @test_true(ptr noundef nonnull @.str.14, i32 noundef 41, ptr noundef nonnull @.str.23, i32 noundef %25) #6
  %.not6 = icmp eq i32 %26, 0
  br i1 %.not6, label %72, label %27

27:                                               ; preds = %21
  %28 = load ptr, ptr %1, align 8, !tbaa !9
  %29 = call i32 @SSL_CTX_set_ciphersuites(ptr noundef %28, ptr noundef nonnull @.str.26) #6
  %30 = icmp ne i32 %29, 0
  %31 = zext i1 %30 to i32
  %32 = call i32 @test_true(ptr noundef nonnull @.str.14, i32 noundef 43, ptr noundef nonnull @.str.25, i32 noundef %31) #6
  %.not7 = icmp eq i32 %32, 0
  br i1 %.not7, label %72, label %33

33:                                               ; preds = %27
  %34 = load ptr, ptr %2, align 8, !tbaa !9
  %35 = call i32 @SSL_CTX_set_ciphersuites(ptr noundef %34, ptr noundef nonnull @.str.28) #6
  %36 = icmp ne i32 %35, 0
  %37 = zext i1 %36 to i32
  %38 = call i32 @test_true(ptr noundef nonnull @.str.14, i32 noundef 45, ptr noundef nonnull @.str.27, i32 noundef %37) #6
  %.not8 = icmp eq i32 %38, 0
  br i1 %.not8, label %72, label %39

39:                                               ; preds = %33
  %40 = load ptr, ptr %1, align 8, !tbaa !9
  %41 = load ptr, ptr %2, align 8, !tbaa !9
  %42 = call i32 @create_ssl_objects(ptr noundef %40, ptr noundef %41, ptr noundef nonnull %3, ptr noundef nonnull %4, ptr noundef null, ptr noundef null) #6
  %43 = icmp ne i32 %42, 0
  %44 = zext i1 %43 to i32
  %45 = call i32 @test_true(ptr noundef nonnull @.str.14, i32 noundef 47, ptr noundef nonnull @.str.29, i32 noundef %44) #6
  %.not9 = icmp eq i32 %45, 0
  br i1 %.not9, label %72, label %46

46:                                               ; preds = %39
  %47 = load ptr, ptr %4, align 8, !tbaa !11
  %48 = call ptr @SSL_get_wbio(ptr noundef %47) #6
  %49 = call i32 @test_ptr(ptr noundef nonnull @.str.14, i32 noundef 51, ptr noundef nonnull @.str.30, ptr noundef %48) #6
  %.not10 = icmp eq i32 %49, 0
  br i1 %.not10, label %50, label %51

50:                                               ; preds = %46
  %puts = call i32 @puts(ptr nonnull dereferenceable(1) @str)
  br label %72

51:                                               ; preds = %46
  %52 = load ptr, ptr %3, align 8, !tbaa !11
  %53 = load ptr, ptr %4, align 8, !tbaa !11
  %54 = call i32 @create_ssl_connection(ptr noundef %52, ptr noundef %53, i32 noundef 0) #6
  %55 = icmp ne i32 %54, 0
  %56 = zext i1 %55 to i32
  %57 = call i32 @test_false(ptr noundef nonnull @.str.14, i32 noundef 57, ptr noundef nonnull @.str.32, i32 noundef %56) #6
  %.not11 = icmp eq i32 %57, 0
  br i1 %.not11, label %72, label %58

58:                                               ; preds = %51
  call void @ERR_clear_error() #6
  %59 = call i32 @BIO_write(ptr noundef %48, ptr noundef nonnull %6, i32 noundef 10) #6
  %60 = call i32 @test_int_gt(ptr noundef nonnull @.str.14, i32 noundef 63, ptr noundef nonnull @.str.33, ptr noundef nonnull @.str.34, i32 noundef %59, i32 noundef 0) #6
  %.not12 = icmp eq i32 %60, 0
  br i1 %.not12, label %72, label %61

61:                                               ; preds = %58
  %62 = load ptr, ptr %3, align 8, !tbaa !11
  %63 = call i32 @SSL_read(ptr noundef %62, ptr noundef nonnull %5, i32 noundef 79) #6
  %64 = call i32 @test_int_le(ptr noundef nonnull @.str.14, i32 noundef 67, ptr noundef nonnull @.str.35, ptr noundef nonnull @.str.34, i32 noundef %63, i32 noundef 0) #6
  %.not13 = icmp eq i32 %64, 0
  br i1 %.not13, label %65, label %68

65:                                               ; preds = %61
  %66 = sext i32 %63 to i64
  %67 = getelementptr inbounds [80 x i8], ptr %5, i64 0, i64 %66
  store i8 0, ptr %67, align 1, !tbaa !13
  call void (ptr, i32, ptr, ...) @test_error(ptr noundef nonnull @.str.14, i32 noundef 69, ptr noundef nonnull @.str.36, ptr noundef nonnull %5) #6
  br label %72

68:                                               ; preds = %61
  %69 = load ptr, ptr %3, align 8, !tbaa !11
  %70 = call i32 @SSL_write(ptr noundef %69, ptr noundef nonnull @.str.19, i32 noundef 5) #6
  %71 = call i32 @test_int_le(ptr noundef nonnull @.str.14, i32 noundef 72, ptr noundef nonnull @.str.37, ptr noundef nonnull @.str.34, i32 noundef %70, i32 noundef 0) #6
  %.not14 = icmp ne i32 %71, 0
  %spec.select = zext i1 %.not14 to i32
  br label %72

72:                                               ; preds = %68, %58, %51, %15, %21, %27, %33, %39, %0, %65, %50
  %.0 = phi i32 [ 0, %65 ], [ 0, %58 ], [ 0, %51 ], [ 0, %50 ], [ 0, %39 ], [ 0, %33 ], [ 0, %27 ], [ 0, %21 ], [ 0, %15 ], [ 0, %0 ], [ %spec.select, %68 ]
  %73 = load ptr, ptr %3, align 8, !tbaa !11
  call void @SSL_free(ptr noundef %73) #6
  %74 = load ptr, ptr %4, align 8, !tbaa !11
  call void @SSL_free(ptr noundef %74) #6
  %75 = load ptr, ptr %1, align 8, !tbaa !9
  call void @SSL_CTX_free(ptr noundef %75) #6
  %76 = load ptr, ptr %2, align 8, !tbaa !9
  call void @SSL_CTX_free(ptr noundef %76) #6
  call void @llvm.lifetime.end.p0(i64 10, ptr nonnull %6) #6
  call void @llvm.lifetime.end.p0(i64 80, ptr nonnull %5) #6
  call void @llvm.lifetime.end.p0(i64 8, ptr nonnull %4) #6
  call void @llvm.lifetime.end.p0(i64 8, ptr nonnull %3) #6
  call void @llvm.lifetime.end.p0(i64 8, ptr nonnull %2) #6
  call void @llvm.lifetime.end.p0(i64 8, ptr nonnull %1) #6
  ret i32 %.0
}